; Function Attrs: nofree norecurse nosync nounwind memory(read, argmem: readwrite, inaccessiblemem: none) uwtable
define internal void @Eval15InputsFloat(ptr nocapture noundef readonly %0, ptr nocapture noundef writeonly %1, ptr nocapture noundef readonly %2) #4 {
  %4 = alloca [128 x float], align 16
  %5 = alloca [128 x float], align 16
  %6 = alloca %struct._cms_interp_struc, align 8
  %7 = alloca [128 x float], align 16
  %8 = alloca [128 x float], align 16
  %9 = alloca %struct._cms_interp_struc, align 8
  %10 = alloca [128 x float], align 16
  %11 = alloca [128 x float], align 16
  %12 = getelementptr inbounds i8, ptr %2, i64 200
  %13 = load ptr, ptr %12, align 8
  %14 = getelementptr inbounds i8, ptr %2, i64 80
  %15 = load i32, ptr %14, align 8
  %16 = uitofp i32 %15 to float
  %17 = getelementptr inbounds i8, ptr %2, i64 196
  %18 = load i32, ptr %17, align 4
  %.sroa.3.0..sroa_idx = getelementptr inbounds i8, ptr %2, i64 16
  %.sroa.3.0.copyload = load i32, ptr %.sroa.3.0..sroa_idx, align 8
  %.sroa.7.0..sroa_idx = getelementptr inbounds i8, ptr %2, i64 20
  %.sroa.10.0..sroa_idx = getelementptr inbounds i8, ptr %2, i64 84
  %.sroa.12.0..sroa_idx = getelementptr inbounds i8, ptr %2, i64 136
  %.sroa.1257.0..sroa_idx = getelementptr inbounds i8, ptr %2, i64 192
  %.sroa.1257.0.copyload = load i32, ptr %.sroa.1257.0..sroa_idx, align 8
  %.sroa.18.0..sroa_idx = getelementptr inbounds i8, ptr %2, i64 208
  %.sroa.18.0.copyload = load ptr, ptr %.sroa.18.0..sroa_idx, align 8
  %.sroa.747.80.copyload = load i32, ptr %.sroa.10.0..sroa_idx, align 4
  %.sroa.10.80..sroa_idx = getelementptr inbounds i8, ptr %2, i64 88
  call void @llvm.lifetime.start.p0(i64 512, ptr nonnull %7)
  call void @llvm.lifetime.start.p0(i64 512, ptr nonnull %8)
  call void @llvm.lifetime.start.p0(i64 216, ptr nonnull %9)
  %19 = uitofp i32 %.sroa.747.80.copyload to float
  %20 = load <2 x float>, ptr %0, align 4
  %21 = fcmp olt <2 x float> %20, <float 0x3E112E0BE0000000, float 0x3E112E0BE0000000>
  %22 = fcmp uno <2 x float> %20, zeroinitializer
  %23 = or <2 x i1> %21, %22
  %24 = fcmp ogt <2 x float> %20, <float 1.000000e+00, float 1.000000e+00>
  %25 = select <2 x i1> %24, <2 x float> <float 1.000000e+00, float 1.000000e+00>, <2 x float> %20
  %26 = select <2 x i1> %23, <2 x float> zeroinitializer, <2 x float> %25
  %27 = extractelement <2 x float> %26, i64 0
  %28 = fmul float %27, %16
  %29 = tail call float @llvm.floor.f32(float %28)
  %30 = fptosi float %29 to i32
  %31 = sitofp i32 %30 to float
  %32 = fsub float %28, %31
  %33 = mul i32 %18, %30
  %34 = fcmp ult <2 x float> %26, <float 1.000000e+00, float 1.000000e+00>
  %35 = extractelement <2 x i1> %34, i64 0
  %36 = select i1 %35, i32 %18, i32 0
  %37 = add i32 %33, %36
  %38 = sext i32 %33 to i64
  %39 = getelementptr inbounds float, ptr %13, i64 %38
  %40 = extractelement <2 x float> %26, i64 1
  %41 = fmul float %40, %19
  %42 = tail call float @llvm.floor.f32(float %41)
  %43 = fptosi float %42 to i32
  %44 = sitofp i32 %43 to float
  %45 = fsub float %41, %44
  %46 = mul i32 %.sroa.1257.0.copyload, %43
  %47 = extractelement <2 x i1> %34, i64 1
  %48 = select i1 %47, i32 %.sroa.1257.0.copyload, i32 0
  %49 = add i32 %46, %48
  call void @llvm.memcpy.p0.p0.i64(ptr noundef nonnull align 8 dereferenceable(16) %9, ptr noundef nonnull align 8 dereferenceable(16) %2, i64 16, i1 false)
  %.sroa.3.0..sroa_idx38 = getelementptr inbounds i8, ptr %9, i64 16
  store i32 %.sroa.3.0.copyload, ptr %.sroa.3.0..sroa_idx38, align 8
  %.sroa.7.0..sroa_idx45 = getelementptr inbounds i8, ptr %9, i64 20
  call void @llvm.memcpy.p0.p0.i64(ptr noundef nonnull align 4 dereferenceable(60) %.sroa.7.0..sroa_idx45, ptr noundef nonnull align 4 dereferenceable(60) %.sroa.7.0..sroa_idx, i64 60, i1 false)
  %.sroa.747.0..sroa_idx48 = getelementptr inbounds i8, ptr %9, i64 80
  %.sroa.10.0..sroa_idx53 = getelementptr inbounds i8, ptr %9, i64 84
  call void @llvm.memcpy.p0.p0.i64(ptr noundef nonnull align 4 dereferenceable(52) %.sroa.10.0..sroa_idx53, ptr noundef nonnull align 4 dereferenceable(52) %.sroa.10.80..sroa_idx, i64 52, i1 false)
  %.sroa.12.0..sroa_idx55 = getelementptr inbounds i8, ptr %9, i64 136
  call void @llvm.memcpy.p0.p0.i64(ptr noundef nonnull align 8 dereferenceable(56) %.sroa.12.0..sroa_idx55, ptr noundef nonnull align 8 dereferenceable(56) %.sroa.12.0..sroa_idx, i64 56, i1 false)
  %.sroa.1257.0..sroa_idx58 = getelementptr inbounds i8, ptr %9, i64 192
  store i32 %.sroa.1257.0.copyload, ptr %.sroa.1257.0..sroa_idx58, align 8
  %.sroa.14.0..sroa_idx63 = getelementptr inbounds i8, ptr %9, i64 196
  store i32 %18, ptr %.sroa.14.0..sroa_idx63, align 4
  %.sroa.1467.0..sroa_idx68 = getelementptr inbounds i8, ptr %9, i64 200
  %.sroa.18.0..sroa_idx73 = getelementptr inbounds i8, ptr %9, i64 208
  store ptr %.sroa.18.0.copyload, ptr %.sroa.18.0..sroa_idx73, align 8
  call void @llvm.memcpy.p0.p0.i64(ptr noundef nonnull align 8 dereferenceable(52) %.sroa.747.0..sroa_idx48, ptr noundef nonnull align 4 dereferenceable(52) %.sroa.10.80..sroa_idx, i64 52, i1 false)
  %50 = sext i32 %46 to i64
  %51 = getelementptr inbounds float, ptr %39, i64 %50
  store ptr %51, ptr %.sroa.1467.0..sroa_idx68, align 8
  %52 = getelementptr inbounds i8, ptr %0, i64 8
  call void @Eval13InputsFloat(ptr noundef nonnull readonly %52, ptr noundef nonnull %7, ptr noundef nonnull %9)
  %53 = sext i32 %49 to i64
  %54 = getelementptr inbounds float, ptr %39, i64 %53
  store ptr %54, ptr %.sroa.1467.0..sroa_idx68, align 8
  call void @Eval13InputsFloat(ptr noundef nonnull readonly %52, ptr noundef nonnull %8, ptr noundef nonnull %9)
  %.not.i = icmp eq i32 %.sroa.3.0.copyload, 0
  br i1 %.not.i, label %Eval14InputsFloat.exit, label %.lr.ph.i.preheader

.lr.ph.i.preheader:                               ; preds = %3
  %55 = zext i32 %.sroa.3.0.copyload to i64
  br label %.lr.ph.i

.lr.ph.i:                                         ; preds = %.lr.ph.i.preheader, %.lr.ph.i
  %indvars.iv.i = phi i64 [ %indvars.iv.next.i, %.lr.ph.i ], [ 0, %.lr.ph.i.preheader ]
  %56 = getelementptr inbounds [128 x float], ptr %7, i64 0, i64 %indvars.iv.i
  %57 = load float, ptr %56, align 4
  %58 = getelementptr inbounds [128 x float], ptr %8, i64 0, i64 %indvars.iv.i
  %59 = load float, ptr %58, align 4
  %60 = fsub float %59, %57
  %61 = tail call float @llvm.fmuladd.f32(float %60, float %45, float %57)
  %62 = getelementptr inbounds float, ptr %10, i64 %indvars.iv.i
  store float %61, ptr %62, align 4
  %indvars.iv.next.i = add nuw nsw i64 %indvars.iv.i, 1
  %exitcond.not = icmp eq i64 %indvars.iv.next.i, %55
  br i1 %exitcond.not, label %Eval14InputsFloat.exit, label %.lr.ph.i, !llvm.loop !47

Eval14InputsFloat.exit:                           ; preds = %.lr.ph.i, %3
  call void @llvm.lifetime.end.p0(i64 512, ptr nonnull %7)
  call void @llvm.lifetime.end.p0(i64 512, ptr nonnull %8)
  call void @llvm.lifetime.end.p0(i64 216, ptr nonnull %9)
  %63 = sext i32 %37 to i64
  %64 = getelementptr inbounds float, ptr %13, i64 %63
  call void @llvm.lifetime.start.p0(i64 512, ptr nonnull %4)
  call void @llvm.lifetime.start.p0(i64 512, ptr nonnull %5)
  call void @llvm.lifetime.start.p0(i64 216, ptr nonnull %6)
  call void @llvm.memcpy.p0.p0.i64(ptr noundef nonnull align 8 dereferenceable(16) %6, ptr noundef nonnull align 8 dereferenceable(16) %2, i64 16, i1 false)
  %.sroa.3.0..sroa_idx40 = getelementptr inbounds i8, ptr %6, i64 16
  store i32 %.sroa.3.0.copyload, ptr %.sroa.3.0..sroa_idx40, align 8
  %.sroa.7.0..sroa_idx46 = getelementptr inbounds i8, ptr %6, i64 20
  call void @llvm.memcpy.p0.p0.i64(ptr noundef nonnull align 4 dereferenceable(60) %.sroa.7.0..sroa_idx46, ptr noundef nonnull align 4 dereferenceable(60) %.sroa.7.0..sroa_idx, i64 60, i1 false)
  %.sroa.747.0..sroa_idx50 = getelementptr inbounds i8, ptr %6, i64 80
  %.sroa.10.0..sroa_idx54 = getelementptr inbounds i8, ptr %6, i64 84
  call void @llvm.memcpy.p0.p0.i64(ptr noundef nonnull align 4 dereferenceable(52) %.sroa.10.0..sroa_idx54, ptr noundef nonnull align 4 dereferenceable(52) %.sroa.10.80..sroa_idx, i64 52, i1 false)
  %.sroa.12.0..sroa_idx56 = getelementptr inbounds i8, ptr %6, i64 136
  call void @llvm.memcpy.p0.p0.i64(ptr noundef nonnull align 8 dereferenceable(56) %.sroa.12.0..sroa_idx56, ptr noundef nonnull align 8 dereferenceable(56) %.sroa.12.0..sroa_idx, i64 56, i1 false)
  %.sroa.1257.0..sroa_idx60 = getelementptr inbounds i8, ptr %6, i64 192
  store i32 %.sroa.1257.0.copyload, ptr %.sroa.1257.0..sroa_idx60, align 8
  %.sroa.14.0..sroa_idx65 = getelementptr inbounds i8, ptr %6, i64 196
  store i32 %18, ptr %.sroa.14.0..sroa_idx65, align 4
  %.sroa.1467.0..sroa_idx70 = getelementptr inbounds i8, ptr %6, i64 200
  %.sroa.18.0..sroa_idx75 = getelementptr inbounds i8, ptr %6, i64 208
  store ptr %.sroa.18.0.copyload, ptr %.sroa.18.0..sroa_idx75, align 8
  call void @llvm.memcpy.p0.p0.i64(ptr noundef nonnull align 8 dereferenceable(52) %.sroa.747.0..sroa_idx50, ptr noundef nonnull align 4 dereferenceable(52) %.sroa.10.80..sroa_idx, i64 52, i1 false)
  %65 = getelementptr inbounds float, ptr %64, i64 %50
  store ptr %65, ptr %.sroa.1467.0..sroa_idx70, align 8
  call void @Eval13InputsFloat(ptr noundef nonnull readonly %52, ptr noundef nonnull %4, ptr noundef nonnull %6)
  %66 = getelementptr inbounds float, ptr %64, i64 %53
  store ptr %66, ptr %.sroa.1467.0..sroa_idx70, align 8
  call void @Eval13InputsFloat(ptr noundef nonnull readonly %52, ptr noundef nonnull %5, ptr noundef nonnull %6)
  br i1 %.not.i, label %Eval14InputsFloat.exit37.thread, label %.lr.ph.i34.preheader

Eval14InputsFloat.exit37.thread:                  ; preds = %Eval14InputsFloat.exit
  call void @llvm.lifetime.end.p0(i64 512, ptr nonnull %4)
  call void @llvm.lifetime.end.p0(i64 512, ptr nonnull %5)
  call void @llvm.lifetime.end.p0(i64 216, ptr nonnull %6)
  br label %._crit_edge

.lr.ph.i34.preheader:                             ; preds = %Eval14InputsFloat.exit
  %67 = zext i32 %.sroa.3.0.copyload to i64
  br label %.lr.ph.i34

.lr.ph.i34:                                       ; preds = %.lr.ph.i34.preheader, %.lr.ph.i34
  %indvars.iv.i35 = phi i64 [ %indvars.iv.next.i36, %.lr.ph.i34 ], [ 0, %.lr.ph.i34.preheader ]
  %68 = getelementptr inbounds [128 x float], ptr %4, i64 0, i64 %indvars.iv.i35
  %69 = load float, ptr %68, align 4
  %70 = getelementptr inbounds [128 x float], ptr %5, i64 0, i64 %indvars.iv.i35
  %71 = load float, ptr %70, align 4
  %72 = fsub float %71, %69
  %73 = tail call float @llvm.fmuladd.f32(float %72, float %45, float %69)
  %74 = getelementptr inbounds float, ptr %11, i64 %indvars.iv.i35
  store float %73, ptr %74, align 4
  %indvars.iv.next.i36 = add nuw nsw i64 %indvars.iv.i35, 1
  %exitcond78.not = icmp eq i64 %indvars.iv.next.i36, %67
  br i1 %exitcond78.not, label %Eval14InputsFloat.exit37, label %.lr.ph.i34, !llvm.loop !47

Eval14InputsFloat.exit37:                         ; preds = %.lr.ph.i34
  call void @llvm.lifetime.end.p0(i64 512, ptr nonnull %4)
  call void @llvm.lifetime.end.p0(i64 512, ptr nonnull %5)
  call void @llvm.lifetime.end.p0(i64 216, ptr nonnull %6)
  br i1 %.not.i, label %._crit_edge, label %.lr.ph

.lr.ph:                                           ; preds = %Eval14InputsFloat.exit37, %.lr.ph
  %indvars.iv = phi i64 [ %indvars.iv.next, %.lr.ph ], [ 0, %Eval14InputsFloat.exit37 ]
  %75 = getelementptr inbounds [128 x float], ptr %10, i64 0, i64 %indvars.iv
  %76 = load float, ptr %75, align 4
  %77 = getelementptr inbounds [128 x float], ptr %11, i64 0, i64 %indvars.iv
  %78 = load float, ptr %77, align 4
  %79 = fsub float %78, %76
  %80 = tail call float @llvm.fmuladd.f32(float %79, float %32, float %76)
  %81 = getelementptr inbounds float, ptr %1, i64 %indvars.iv
  store float %80, ptr %81, align 4
  %indvars.iv.next = add nuw nsw i64 %indvars.iv, 1
  %82 = load i32, ptr %.sroa.3.0..sroa_idx, align 8
  %83 = zext i32 %82 to i64
  %84 = icmp ult i64 %indvars.iv.next, %83
  br i1 %84, label %.lr.ph, label %._crit_edge, !llvm.loop !49

._crit_edge:                                      ; preds = %.lr.ph, %Eval14InputsFloat.exit37.thread, %Eval14InputsFloat.exit37
  ret void
}